target datalayout = "e-m:e-p270:32:32-p271:32:32-p272:64:64-i64:64-i128:128-f80:128-n8:16:32:64-S128"
target triple = "x86_64-pc-linux-gnu"

%struct.H5O_shmesg_table_t = type { i64, i32, i32 }

@H5O_init_g = external global i8, align 1
@H5_libterm_g = external global i8, align 1

; Function Attrs: nounwind uwtable
define internal i32 @H5O__shmesg_encode(ptr noundef %0, i1 noundef zeroext %1, i64 noundef %2, ptr noundef %3, ptr noundef %4) #0 {
  %6 = alloca ptr, align 8
  %7 = alloca i8, align 1
  %8 = alloca i64, align 8
  %9 = alloca ptr, align 8
  %10 = alloca ptr, align 8
  %11 = alloca ptr, align 8
  store ptr %0, ptr %6, align 8, !tbaa !3
  %12 = zext i1 %1 to i8
  store i8 %12, ptr %7, align 1, !tbaa !19
  store i64 %2, ptr %8, align 8, !tbaa !14
  store ptr %3, ptr %9, align 8, !tbaa !16
  store ptr %4, ptr %10, align 8, !tbaa !18
  call void @llvm.lifetime.start.p0(i64 8, ptr %11) #8
  %13 = load ptr, ptr %10, align 8, !tbaa !18
  store ptr %13, ptr %11, align 8, !tbaa !23
  %14 = load i8, ptr @H5O_init_g, align 1, !tbaa !19, !range !21, !noundef !22
  %15 = trunc i8 %14 to i1
  br i1 %15, label %20, label %16

16:                                               ; preds = %5
  %17 = load i8, ptr @H5_libterm_g, align 1, !tbaa !19, !range !21, !noundef !22
  %18 = trunc i8 %17 to i1
  %19 = xor i1 %18, true
  br label %20

20:                                               ; preds = %16, %5
  %21 = phi i1 [ true, %5 ], [ %19, %16 ]
  %22 = xor i1 %21, true
  %23 = xor i1 %22, true
  %24 = zext i1 %23 to i32
  %25 = sext i32 %24 to i64
  %26 = call i64 @llvm.expect.i64(i64 %25, i64 1)
  %27 = icmp ne i64 %26, 0
  br i1 %27, label %28, label %45

28:                                               ; preds = %20
  %29 = load ptr, ptr %11, align 8, !tbaa !23
  %30 = getelementptr inbounds nuw %struct.H5O_shmesg_table_t, ptr %29, i32 0, i32 1
  %31 = load i32, ptr %30, align 8, !tbaa !26
  %32 = trunc i32 %31 to i8
  %33 = load ptr, ptr %9, align 8, !tbaa !16
  %34 = getelementptr inbounds nuw i8, ptr %33, i32 1
  store ptr %34, ptr %9, align 8, !tbaa !16
  store i8 %32, ptr %33, align 1, !tbaa !25
  %35 = load ptr, ptr %6, align 8, !tbaa !3
  %36 = load ptr, ptr %11, align 8, !tbaa !23
  %37 = getelementptr inbounds nuw %struct.H5O_shmesg_table_t, ptr %36, i32 0, i32 0
  %38 = load i64, ptr %37, align 8, !tbaa !29
  call void @H5F_addr_encode(ptr noundef %35, ptr noundef %9, i64 noundef %38)
  %39 = load ptr, ptr %11, align 8, !tbaa !23
  %40 = getelementptr inbounds nuw %struct.H5O_shmesg_table_t, ptr %39, i32 0, i32 2
  %41 = load i32, ptr %40, align 4, !tbaa !28
  %42 = trunc i32 %41 to i8
  %43 = load ptr, ptr %9, align 8, !tbaa !16
  %44 = getelementptr inbounds nuw i8, ptr %43, i32 1
  store ptr %44, ptr %9, align 8, !tbaa !16
  store i8 %42, ptr %43, align 1, !tbaa !25
  br label %45

45:                                               ; preds = %28, %20
  call void @llvm.lifetime.end.p0(i64 8, ptr %11) #8
  ret i32 0
}