; Function Attrs: nounwind uwtable
define internal noundef i32 @H5O__shmesg_encode(ptr noundef %0, i1 zeroext %1, i64 %2, ptr noundef %3, ptr noundef readonly captures(none) %4) #0 {
  %6 = alloca ptr, align 8
  %7 = load i8, ptr @H5O_init_g, align 1, !tbaa !8, !range !10, !noundef !11
  %8 = trunc nuw i8 %7 to i1
  %9 = load i8, ptr @H5_libterm_g, align 1, !range !10
  %10 = trunc nuw i8 %9 to i1
  %11 = xor i1 %10, true
  %12 = select i1 %8, i1 true, i1 %11
  br i1 %12, label %13, label %23, !prof !12

13:                                               ; preds = %5
  %14 = getelementptr inbounds nuw i8, ptr %4, i64 8
  %15 = load i32, ptr %14, align 8, !tbaa !16
  %16 = trunc i32 %15 to i8
  %17 = getelementptr inbounds nuw i8, ptr %3, i64 1
  store ptr %17, ptr %6, align 8, !tbaa !3
  store i8 %16, ptr %3, align 1, !tbaa !15
  %18 = load i64, ptr %4, align 8, !tbaa !20
  call void @H5F_addr_encode(ptr noundef %0, ptr noundef nonnull %6, i64 noundef %18) #8
  %19 = getelementptr inbounds nuw i8, ptr %4, i64 12
  %20 = load i32, ptr %19, align 4, !tbaa !19
  %21 = trunc i32 %20 to i8
  %22 = load ptr, ptr %6, align 8, !tbaa !3
  store i8 %21, ptr %22, align 1, !tbaa !15
  br label %23

23:                                               ; preds = %13, %5
  ret i32 0
}